(i__main__
Project
p0
(dp1
S'tasks'
p2
(lp3
(itask
Task
p4
(dp5
S'startDate'
p6
cdatetime
datetime
p7
(S'\x07\xde\x0b\x13\x15\x03*\x07V\xe8'
p8
tp9
Rp10
sS'finishedDate'
p11
NsS'finished'
p12
I00
sS'name'
p13
S'New Task'
p14
sS'description'
p15
S'Description'
p16
sba(itask
Task
p17
(dp18
g6
g10
sg11
Nsg12
I01
sg13
S'Old Task'
p19
sg15
g16
sba(itask
Task
p20
(dp21
g6
g10
sg11
Nsg12
I00
sg13
S'Bad Task'
p22
sg15
S'FUCK'
p23
sba(itask
Task
p24
(dp25
g6
g10
sg11
Nsg12
I00
sg13
S'Good Task'
p26
sg15
g16
sbasg13
S'Test'
p27
sg15
g16
sb.